; Function Attrs: nounwind uwtable
define dso_local void @jw_array_inline_begin_object(ptr noundef %0) local_unnamed_addr #3 {
  tail call fastcc void @array_common(ptr noundef %0)
  %2 = load i64, ptr %0, align 8, !tbaa !4
  %.not.i.i.i.i = icmp eq i64 %2, 0
  br i1 %.not.i.i.i.i, label %strbuf_avail.exit.thread.i.i.i, label %strbuf_avail.exit.i.i.i

strbuf_avail.exit.i.i.i:                          ; preds = %1
  %3 = getelementptr inbounds nuw i8, ptr %0, i64 8
  %4 = load i64, ptr %3, align 8, !tbaa !11
  %.neg.i.i.i = add i64 %4, 1
  %.not.i.i.i = icmp eq i64 %2, %.neg.i.i.i
  br i1 %.not.i.i.i, label %strbuf_avail.exit.thread.i.i.i, label %strbuf_addch.exit.i.i

strbuf_avail.exit.thread.i.i.i:                   ; preds = %strbuf_avail.exit.i.i.i, %1
  tail call void @strbuf_grow(ptr noundef nonnull %0, i64 noundef 1) #8
  %.phi.trans.insert.i.i.i = getelementptr inbounds nuw i8, ptr %0, i64 8
  %.pre.i.i.i = load i64, ptr %.phi.trans.insert.i.i.i, align 8, !tbaa !11
  %.pre7.i.i.i = add i64 %.pre.i.i.i, 1
  br label %strbuf_addch.exit.i.i

strbuf_addch.exit.i.i:                            ; preds = %strbuf_avail.exit.thread.i.i.i, %strbuf_avail.exit.i.i.i
  %.pre-phi.i.i.i = phi i64 [ %.pre7.i.i.i, %strbuf_avail.exit.thread.i.i.i ], [ %.neg.i.i.i, %strbuf_avail.exit.i.i.i ]
  %5 = phi i64 [ %.pre.i.i.i, %strbuf_avail.exit.thread.i.i.i ], [ %4, %strbuf_avail.exit.i.i.i ]
  %6 = getelementptr inbounds nuw i8, ptr %0, i64 16
  %7 = load ptr, ptr %6, align 8, !tbaa !12
  %8 = getelementptr inbounds nuw i8, ptr %0, i64 8
  store i64 %.pre-phi.i.i.i, ptr %8, align 8, !tbaa !11
  %9 = getelementptr inbounds nuw i8, ptr %7, i64 %5
  store i8 123, ptr %9, align 1, !tbaa !13
  %10 = load ptr, ptr %6, align 8, !tbaa !12
  %11 = load i64, ptr %8, align 8, !tbaa !11
  %12 = getelementptr inbounds nuw i8, ptr %10, i64 %11
  store i8 0, ptr %12, align 1, !tbaa !13
  %13 = getelementptr inbounds nuw i8, ptr %0, i64 24
  %14 = load i64, ptr %13, align 8, !tbaa !4
  %.not.i.i6.i.i = icmp eq i64 %14, 0
  br i1 %.not.i.i6.i.i, label %strbuf_avail.exit.thread.i11.i.i, label %strbuf_avail.exit.i7.i.i

strbuf_avail.exit.i7.i.i:                         ; preds = %strbuf_addch.exit.i.i
  %15 = getelementptr inbounds nuw i8, ptr %0, i64 32
  %16 = load i64, ptr %15, align 8, !tbaa !11
  %.neg.i8.i.i = add i64 %16, 1
  %.not.i9.i.i = icmp eq i64 %14, %.neg.i8.i.i
  br i1 %.not.i9.i.i, label %strbuf_avail.exit.thread.i11.i.i, label %jw_object_begin.exit

strbuf_avail.exit.thread.i11.i.i:                 ; preds = %strbuf_avail.exit.i7.i.i, %strbuf_addch.exit.i.i
  tail call void @strbuf_grow(ptr noundef nonnull %13, i64 noundef 1) #8
  %.phi.trans.insert.i12.i.i = getelementptr inbounds nuw i8, ptr %0, i64 32
  %.pre.i13.i.i = load i64, ptr %.phi.trans.insert.i12.i.i, align 8, !tbaa !11
  %.pre7.i14.i.i = add i64 %.pre.i13.i.i, 1
  br label %jw_object_begin.exit

jw_object_begin.exit:                             ; preds = %strbuf_avail.exit.i7.i.i, %strbuf_avail.exit.thread.i11.i.i
  %.pre-phi.i10.i.i = phi i64 [ %.pre7.i14.i.i, %strbuf_avail.exit.thread.i11.i.i ], [ %.neg.i8.i.i, %strbuf_avail.exit.i7.i.i ]
  %17 = phi i64 [ %.pre.i13.i.i, %strbuf_avail.exit.thread.i11.i.i ], [ %16, %strbuf_avail.exit.i7.i.i ]
  %18 = getelementptr inbounds nuw i8, ptr %0, i64 48
  %19 = getelementptr inbounds nuw i8, ptr %0, i64 40
  %20 = load ptr, ptr %19, align 8, !tbaa !12
  %21 = getelementptr inbounds nuw i8, ptr %0, i64 32
  store i64 %.pre-phi.i10.i.i, ptr %21, align 8, !tbaa !11
  %22 = getelementptr inbounds nuw i8, ptr %20, i64 %17
  store i8 123, ptr %22, align 1, !tbaa !13
  %23 = load ptr, ptr %19, align 8, !tbaa !12
  %24 = load i64, ptr %21, align 8, !tbaa !11
  %25 = getelementptr inbounds nuw i8, ptr %23, i64 %24
  store i8 0, ptr %25, align 1, !tbaa !13
  %26 = load i8, ptr %18, align 8
  %27 = and i8 %26, -2
  store i8 %27, ptr %18, align 8
  ret void
}